; Function Attrs: nounwind uwtable
define noalias nonnull ptr @l_Lake_StrPat_beq(ptr noundef %0) #0 {
  %2 = ptrtoint ptr %0 to i64
  %3 = and i64 %2, 1
  %.not = icmp eq i64 %3, 0
  br i1 %.not, label %4, label %lean_inc.exit

4:                                                ; preds = %1
  %.val.i = load i32, ptr %0, align 4, !tbaa !8
  %5 = icmp sgt i32 %.val.i, 0
  br i1 %5, label %6, label %8, !prof !11

6:                                                ; preds = %4
  %7 = add nuw i32 %.val.i, 1
  store i32 %7, ptr %0, align 4, !tbaa !8
  br label %lean_inc.exit

8:                                                ; preds = %4
  %.not.i = icmp eq i32 %.val.i, 0
  br i1 %.not.i, label %lean_inc.exit, label %9

9:                                                ; preds = %8
  tail call void @lean_inc_ref_cold(ptr noundef nonnull %0) #7
  br label %lean_inc.exit

lean_inc.exit:                                    ; preds = %9, %8, %6, %1
  tail call void @lean_inc_heartbeat() #7
  %10 = tail call noalias ptr @mi_malloc_small(i64 noundef 32) #7
  %11 = icmp eq ptr %10, null
  br i1 %11, label %12, label %lean_alloc_closure.exit

12:                                               ; preds = %lean_inc.exit
  tail call void @lean_internal_panic_out_of_memory() #8
  unreachable

lean_alloc_closure.exit:                          ; preds = %lean_inc.exit
  %13 = getelementptr inbounds nuw i8, ptr %10, i64 4
  store i32 1, ptr %10, align 4, !tbaa !8
  store i32 -184549344, ptr %13, align 4
  %14 = getelementptr inbounds nuw i8, ptr %10, i64 8
  store ptr @l_Lake_StrPat_beq___lambda__1___boxed, ptr %14, align 8, !tbaa !4
  %15 = getelementptr inbounds nuw i8, ptr %10, i64 16
  store i16 2, ptr %15, align 8, !tbaa !14
  %16 = getelementptr inbounds nuw i8, ptr %10, i64 18
  store i16 1, ptr %16, align 2, !tbaa !14
  %17 = getelementptr inbounds nuw i8, ptr %10, i64 24
  store ptr %0, ptr %17, align 8, !tbaa !4
  tail call void @lean_inc_heartbeat() #7
  %18 = tail call noalias ptr @mi_malloc_small(i64 noundef 24) #7
  %19 = icmp eq ptr %18, null
  br i1 %19, label %20, label %lean_alloc_ctor.exit.i

20:                                               ; preds = %lean_alloc_closure.exit
  tail call void @lean_internal_panic_out_of_memory() #8
  unreachable

lean_alloc_ctor.exit.i:                           ; preds = %lean_alloc_closure.exit
  %21 = getelementptr inbounds nuw i8, ptr %18, i64 4
  store i32 1, ptr %18, align 4, !tbaa !8
  store i32 16908312, ptr %21, align 4
  %22 = getelementptr inbounds nuw i8, ptr %18, i64 8
  store ptr %0, ptr %22, align 8, !tbaa !4
  %23 = getelementptr inbounds nuw i8, ptr %18, i64 16
  store ptr inttoptr (i64 1 to ptr), ptr %23, align 8, !tbaa !4
  %24 = tail call ptr @lean_array_mk(ptr noundef nonnull %18) #7
  tail call void @lean_inc_heartbeat() #7
  %25 = tail call noalias ptr @mi_malloc_small(i64 noundef 16) #7
  %26 = icmp eq ptr %25, null
  br i1 %26, label %27, label %l_Lake_StrPatDescr_beq.exit

27:                                               ; preds = %lean_alloc_ctor.exit.i
  tail call void @lean_internal_panic_out_of_memory() #8
  unreachable

l_Lake_StrPatDescr_beq.exit:                      ; preds = %lean_alloc_ctor.exit.i
  %28 = getelementptr inbounds nuw i8, ptr %25, i64 4
  store i32 1, ptr %25, align 4, !tbaa !8
  store i32 65552, ptr %28, align 4
  %29 = getelementptr inbounds nuw i8, ptr %25, i64 8
  store ptr %24, ptr %29, align 8, !tbaa !4
  tail call void @lean_inc_heartbeat() #7
  %30 = tail call noalias ptr @mi_malloc_small(i64 noundef 16) #7
  %31 = icmp eq ptr %30, null
  br i1 %31, label %32, label %lean_alloc_ctor.exit

32:                                               ; preds = %l_Lake_StrPatDescr_beq.exit
  tail call void @lean_internal_panic_out_of_memory() #8
  unreachable

lean_alloc_ctor.exit:                             ; preds = %l_Lake_StrPatDescr_beq.exit
  %33 = getelementptr inbounds nuw i8, ptr %30, i64 4
  store i32 1, ptr %30, align 4, !tbaa !8
  store i32 50397200, ptr %33, align 4
  %34 = getelementptr inbounds nuw i8, ptr %30, i64 8
  store ptr %25, ptr %34, align 8, !tbaa !4
  tail call void @lean_inc_heartbeat() #7
  %35 = tail call noalias ptr @mi_malloc_small(i64 noundef 16) #7
  %36 = icmp eq ptr %35, null
  br i1 %36, label %37, label %lean_alloc_ctor.exit15

37:                                               ; preds = %lean_alloc_ctor.exit
  tail call void @lean_internal_panic_out_of_memory() #8
  unreachable

lean_alloc_ctor.exit15:                           ; preds = %lean_alloc_ctor.exit
  %38 = getelementptr inbounds nuw i8, ptr %35, i64 4
  store i32 1, ptr %35, align 4, !tbaa !8
  store i32 16842768, ptr %38, align 4
  %39 = getelementptr inbounds nuw i8, ptr %35, i64 8
  store ptr %30, ptr %39, align 8, !tbaa !4
  tail call void @lean_inc_heartbeat() #7
  %40 = tail call noalias ptr @mi_malloc_small(i64 noundef 32) #7
  %41 = icmp eq ptr %40, null
  br i1 %41, label %42, label %lean_alloc_ctor.exit16

42:                                               ; preds = %lean_alloc_ctor.exit15
  tail call void @lean_internal_panic_out_of_memory() #8
  unreachable

lean_alloc_ctor.exit16:                           ; preds = %lean_alloc_ctor.exit15
  %43 = getelementptr inbounds nuw i8, ptr %40, i64 4
  store i32 1, ptr %40, align 4, !tbaa !8
  store i32 196640, ptr %43, align 4
  %44 = getelementptr inbounds nuw i8, ptr %40, i64 8
  store ptr %10, ptr %44, align 8, !tbaa !4
  %45 = getelementptr inbounds nuw i8, ptr %40, i64 16
  store ptr inttoptr (i64 1 to ptr), ptr %45, align 8, !tbaa !4
  %46 = getelementptr inbounds nuw i8, ptr %40, i64 24
  store ptr %35, ptr %46, align 8, !tbaa !4
  ret ptr %40
}